(dp0
S'Architecture 139'
p1
(ipackage.Class
AClass
p2
(dp3
S'size'
p4
I0
sS'labs'
p5
(lp6
sS'number'
p7
V139
p8
sS'format'
p9
S'LEC\nRegular'
p10
sS'days'
p11
(lp12
S'Fr'
p13
aS'Tu'
p14
asS'lecture_start_time'
p15
S'10:00AM'
p16
sS'lecture_end_time'
p17
S'12:59PM'
p18
sS'ccn'
p19
V12053
p20
sS'location'
p21
VWurster 170
p22
sS'discussions'
p23
(lp24
sS'numEnrolled'
p25
I0
sS'instructor'
p26
VNeyran Turan
p27
sS'subject'
p28
S'Architecture'
p29
sbsS'African American Studies 10A'
p30
(ipackage.Class
AClass
p31
(dp32
g4
I0
sg5
(lp33
sg7
V10A
p34
sg9
S'REC\nRegular'
p35
sg11
(lp36
S'Mo'
p37
aS'Tu'
p38
aS'We'
p39
aS'Th'
p40
asg15
S'12:00PM'
p41
sg17
S'12:59PM'
p42
sg19
V12468
p43
sg21
VBarrows 102
p44
sg23
(lp45
sg25
I0
sg26
VDavid Kyeu
p46
sg28
S'African American Studies'
p47
sbsS'Architecture 130'
p48
(ipackage.Class
AClass
p49
(dp50
g4
I0
sg5
(lp51
sg7
V130
p52
sg9
S'LEC\nRegular'
p53
sg11
(lp54
S'Tu'
p55
aS'Th'
p56
asg15
S'9:30AM'
p57
sg17
S'10:59AM'
p58
sg19
V12048
p59
sg21
VWurster 112
p60
sg23
(lp61
(ipackage.Section
Section
p62
(dp63
g25
I0
sS'section_end_time'
p64
S'3:29PM'
p65
sg9
S'DIS'
p66
sg11
(lp67
S'Tu'
p68
asg19
S'12049'
p69
sg21
VWurster 104
p70
sS'section_start_time'
p71
S'2:00PM'
p72
sg4
I0
sba(ipackage.Section
Section
p73
(dp74
g25
I0
sg64
S'1:59PM'
p75
sg9
g66
sg11
(lp76
S'Tu'
p77
asg19
S'12050'
p78
sg21
VWurster 104
p79
sg71
S'12:30PM'
p80
sg4
I0
sbasg25
I0
sg26
VC Crysler
p81
sg28
g29
sbsS'Anthropology 24'
p82
(ipackage.Class
AClass
p83
(dp84
g4
I0
sg5
(lp85
sg7
V24
p86
sg9
S'SEM\nRegular'
p87
sg11
(lp88
S'Tu'
p89
asg15
S'11:00AM'
p90
sg17
S'11:59AM'
p91
sg19
V33750
p92
sg21
V2251 College 101
p93
sg23
(lp94
sg25
I0
sg26
VPatrick Kirch
p95
sg28
S'Anthropology'
p96
sbsS'African American Studies 194A'
p97
(ipackage.Class
AClass
p98
(dp99
g4
I0
sg5
(lp100
sg7
V194A
p101
sg9
S'SEM\nRegular'
p102
sg11
(lp103
S'We'
p104
asg15
S'5:00PM'
p105
sg17
S'6:59PM'
p106
sg19
V35024
p107
sg21
VChavez 242
p108
sg23
(lp109
sg25
I0
sg26
VStaff
p110
sg28
g47
sbsS'Architecture 170A'
p111
(ipackage.Class
AClass
p112
(dp113
g4
I0
sg5
(lp114
sg7
V170A
p115
sg9
S'LEC\nRegular'
p116
sg11
(lp117
S'Tu'
p118
aS'Th'
p119
asg15
S'11:00AM'
p120
sg17
S'12:29PM'
p121
sg19
V12009
p122
sg21
VWurster 112
p123
sg23
(lp124
(ipackage.Section
Section
p125
(dp126
g25
I0
sg64
S'10:59AM'
p127
sg9
g66
sg11
(lp128
S'Tu'
p129
asg19
S'12010'
p130
sg21
VWurster 370
p131
sg71
S'10:00AM'
p132
sg4
I0
sba(ipackage.Section
Section
p133
(dp134
g25
I0
sg64
S'9:59AM'
p135
sg9
g66
sg11
(lp136
S'Tu'
p137
asg19
S'12011'
p138
sg21
VWurster 370
p139
sg71
S'9:00AM'
p140
sg4
I0
sba(ipackage.Section
Section
p141
(dp142
g25
I0
sg64
S'1:59PM'
p143
sg9
g66
sg11
(lp144
S'Th'
p145
asg19
S'12012'
p146
sg21
VWurster 370
p147
sg71
S'1:00PM'
p148
sg4
I0
sba(ipackage.Section
Section
p149
(dp150
g25
I0
sg64
S'2:59PM'
p151
sg9
g66
sg11
(lp152
S'Th'
p153
asg19
S'12013'
p154
sg21
VWurster 370
p155
sg71
S'2:00PM'
p156
sg4
I0
sba(ipackage.Section
Section
p157
(dp158
g25
I0
sg64
S'2:59PM'
p159
sg9
g66
sg11
(lp160
S'Fr'
p161
asg19
S'12014'
p162
sg21
VWurster 370
p163
sg71
S'2:00PM'
p164
sg4
I0
sba(ipackage.Section
Section
p165
(dp166
g25
I0
sg64
S'3:59PM'
p167
sg9
g66
sg11
(lp168
S'Fr'
p169
asg19
S'11989'
p170
sg21
VWurster 370
p171
sg71
S'3:00PM'
p172
sg4
I0
sbasg25
I0
sg26
VAndrew Shanken
p173
sg28
g29
sbsS'Architecture 102A'
p174
(ipackage.Class
AClass
p175
(dp176
g4
I0
sg5
(lp177
sg7
V102A
p178
sg9
S'SEM\nRegular'
p179
sg11
(lp180
S'Fr'
p181
aS'Mo'
p182
asg15
S'3:00PM'
p183
sg17
S'5:59PM'
p184
sg19
V33828
p185
sg21
VWurster 801
p186
sg23
(lp187
sg25
I0
sg26
VDarell Fields
p188
sg28
g29
sbsS'Arabic 108'
p189
(ipackage.Class
AClass
p190
(dp191
g4
I0
sg5
(lp192
sg7
V108
p193
sg9
S'LEC\nRegular'
p194
sg11
(lp195
S'Mo'
p196
aS'We'
p197
asg15
S'3:00PM'
p198
sg17
S'4:29PM'
p199
sg19
V12927
p200
sg21
VBarrows 252
p201
sg23
(lp202
sg25
I0
sg26
VJohn Hayes
p203
sg28
S'Arabic'
p204
sbsS'Architecture 144'
p205
(ipackage.Class
AClass
p206
(dp207
g4
I0
sg5
(lp208
sg7
V144
p209
sg9
S'LEC\nRegular'
p210
sg11
(lp211
S'Fr'
p212
asg15
S'2:00PM'
p213
sg17
S'4:59PM'
p214
sg19
V12070
p215
sg21
VWurster 170
p216
sg23
(lp217
sg25
I0
sg26
VCharles Salter
p218
sg28
g29
sbsS'African American Studies 114'
p219
(ipackage.Class
AClass
p220
(dp221
g4
I0
sg5
(lp222
sg7
V114
p223
sg9
S'LEC\nRegular'
p224
sg11
(lp225
S'Tu'
p226
aS'Th'
p227
asg15
S'11:00AM'
p228
sg17
S'12:29PM'
p229
sg19
V31655
p230
sg21
VBarrows 175
p231
sg23
(lp232
sg25
I0
sg26
VSam Mchombo
p233
sg28
g47
sbsS'Anthropology 107'
p234
(ipackage.Class
AClass
p235
(dp236
g4
I0
sg5
(lp237
sg7
V107
p238
sg9
S'LEC\nRegular'
p239
sg11
(lp240
S'Tu'
p241
aS'Th'
p242
asg15
S'11:00AM'
p243
sg17
S'12:29PM'
p244
sg19
V12548
p245
sg21
VNorth Gate 105
p246
sg23
(lp247
(ipackage.Section
Section
p248
(dp249
g25
I0
sg64
S'9:59AM'
p250
sg9
g66
sg11
(lp251
S'Mo'
p252
asg19
S'12549'
p253
sg21
VBarrows 65
p254
sg71
S'9:00AM'
p255
sg4
I0
sba(ipackage.Section
Section
p256
(dp257
g25
I0
sg64
S'10:59AM'
p258
sg9
g66
sg11
(lp259
S'Mo'
p260
asg19
S'12550'
p261
sg21
VBarrows 65
p262
sg71
S'10:00AM'
p263
sg4
I0
sba(ipackage.Section
Section
p264
(dp265
g25
I0
sg64
S'11:59AM'
p266
sg9
g66
sg11
(lp267
S'Mo'
p268
asg19
S'12551'
p269
sg21
VBarrows 65
p270
sg71
S'11:00AM'
p271
sg4
I0
sba(ipackage.Section
Section
p272
(dp273
g25
I0
sg64
S'12:59PM'
p274
sg9
g66
sg11
(lp275
S'Mo'
p276
asg19
S'12555'
p277
sg21
VBarrows 65
p278
sg71
S'12:00PM'
p279
sg4
I0
sba(ipackage.Section
Section
p280
(dp281
g25
I0
sg64
S'9:59AM'
p282
sg9
g66
sg11
(lp283
S'We'
p284
asg19
S'12556'
p285
sg21
VBarrows 65
p286
sg71
S'9:00AM'
p287
sg4
I0
sba(ipackage.Section
Section
p288
(dp289
g25
I0
sg64
S'10:59AM'
p290
sg9
g66
sg11
(lp291
S'We'
p292
asg19
S'12557'
p293
sg21
VBarrows 65
p294
sg71
S'10:00AM'
p295
sg4
I0
sba(ipackage.Section
Section
p296
(dp297
g25
I0
sg64
S'11:59AM'
p298
sg9
g66
sg11
(lp299
S'We'
p300
asg19
S'12558'
p301
sg21
VBarrows 65
p302
sg71
S'11:00AM'
p303
sg4
I0
sba(ipackage.Section
Section
p304
(dp305
g25
I0
sg64
S'12:59PM'
p306
sg9
g66
sg11
(lp307
S'We'
p308
asg19
S'12559'
p309
sg21
VBarrows 65
p310
sg71
S'12:00PM'
p311
sg4
I0
sbasg25
I0
sg26
VTerrence Deacon
p312
sg28
g96
sbsS'Architecture 142'
p313
(ipackage.Class
AClass
p314
(dp315
g4
I0
sg5
(lp316
sg7
V142
p317
sg9
S'SEM\nRegular'
p318
sg11
(lp319
S'Fr'
p320
asg15
S'10:00AM'
p321
sg17
S'10:59AM'
p322
sg19
V33773
p323
sg21
VWurster 112
p324
sg23
(lp325
sg25
I0
sg26
VGail Brager
p326
sg28
g29
sbsS'Aerospace Studies 100'
p327
(ipackage.Class
AClass
p328
(dp329
g4
I0
sg5
(lp330
(ipackage.Section
Section
p331
(dp332
g25
I0
sg64
S'3:59PM'
p333
sg9
S'LAB'
p334
sg11
(lp335
S'Fr'
p336
asg19
S'12444'
p337
sg21
VBarrows 126
p338
sg71
S'2:00PM'
p339
sg4
I0
sbasg7
V100
p340
sg11
(lp341
sg15
S''
p342
sg17
g342
sg19
g342
sg21
g342
sg23
(lp343
sg25
I0
sg26
g342
sg28
S'Aerospace Studies'
p344
sbsS'Anthropology 2AC'
p345
(ipackage.Class
AClass
p346
(dp347
g4
I0
sg5
(lp348
sg7
V2AC
p349
sg9
S'LEC\nRegular'
p350
sg11
(lp351
S'Mo'
p352
aS'We'
p353
aS'Fr'
p354
asg15
S'9:00AM'
p355
sg17
S'9:59AM'
p356
sg19
V12741
p357
sg21
VValley Life Sciences 2050
p358
sg23
(lp359
(ipackage.Section
Section
p360
(dp361
g25
I0
sg64
S'10:59AM'
p362
sg9
g66
sg11
(lp363
S'Mo'
p364
asg19
S'12742'
p365
sg21
VBarrows 74
p366
sg71
S'10:00AM'
p367
sg4
I0
sba(ipackage.Section
Section
p368
(dp369
g25
I0
sg64
S'11:59AM'
p370
sg9
g66
sg11
(lp371
S'Mo'
p372
asg19
S'12743'
p373
sg21
VBarrows 74
p374
sg71
S'11:00AM'
p375
sg4
I0
sba(ipackage.Section
Section
p376
(dp377
g25
I0
sg64
S'12:59PM'
p378
sg9
g66
sg11
(lp379
S'Mo'
p380
asg19
S'12744'
p381
sg21
VTBA
p382
sg71
S'12:00PM'
p383
sg4
I0
sba(ipackage.Section
Section
p384
(dp385
g25
I0
sg64
S'9:59AM'
p386
sg9
g66
sg11
(lp387
S'Tu'
p388
asg19
S'12649'
p389
sg21
VBarrows 74
p390
sg71
S'9:00AM'
p391
sg4
I0
sba(ipackage.Section
Section
p392
(dp393
g25
I0
sg64
S'10:59AM'
p394
sg9
g66
sg11
(lp395
S'Tu'
p396
asg19
S'12650'
p397
sg21
VBarrows 74
p398
sg71
S'10:00AM'
p399
sg4
I0
sba(ipackage.Section
Section
p400
(dp401
g25
I0
sg64
S'11:59AM'
p402
sg9
g66
sg11
(lp403
S'Tu'
p404
asg19
S'12651'
p405
sg21
VBarrows 74
p406
sg71
S'11:00AM'
p407
sg4
I0
sba(ipackage.Section
Section
p408
(dp409
g25
I0
sg64
S'12:59PM'
p410
sg9
g66
sg11
(lp411
S'Tu'
p412
asg19
S'12676'
p413
sg21
VBarrows 74
p414
sg71
S'12:00PM'
p415
sg4
I0
sba(ipackage.Section
Section
p416
(dp417
g25
I0
sg64
S'1:59PM'
p418
sg9
g66
sg11
(lp419
S'Tu'
p420
asg19
S'12677'
p421
sg21
VBarrows 74
p422
sg71
S'1:00PM'
p423
sg4
I0
sba(ipackage.Section
Section
p424
(dp425
g25
I0
sg64
S'2:59PM'
p426
sg9
g66
sg11
(lp427
S'Tu'
p428
asg19
S'12678'
p429
sg21
VBarrows 74
p430
sg71
S'2:00PM'
p431
sg4
I0
sba(ipackage.Section
Section
p432
(dp433
g25
I0
sg64
S'3:59PM'
p434
sg9
g66
sg11
(lp435
S'Tu'
p436
asg19
S'12679'
p437
sg21
VBarrows 74
p438
sg71
S'3:00PM'
p439
sg4
I0
sba(ipackage.Section
Section
p440
(dp441
g25
I0
sg64
S'4:59PM'
p442
sg9
g66
sg11
(lp443
S'Tu'
p444
asg19
S'12680'
p445
sg21
VBarrows 74
p446
sg71
S'4:00PM'
p447
sg4
I0
sba(ipackage.Section
Section
p448
(dp449
g25
I0
sg64
S'10:59AM'
p450
sg9
g66
sg11
(lp451
S'We'
p452
asg19
S'12681'
p453
sg21
VBarrows 74
p454
sg71
S'10:00AM'
p455
sg4
I0
sba(ipackage.Section
Section
p456
(dp457
g25
I0
sg64
S'11:59AM'
p458
sg9
g66
sg11
(lp459
S'We'
p460
asg19
S'12682'
p461
sg21
VBarrows 74
p462
sg71
S'11:00AM'
p463
sg4
I0
sba(ipackage.Section
Section
p464
(dp465
g25
I0
sg64
S'2:59PM'
p466
sg9
g66
sg11
(lp467
S'We'
p468
asg19
S'12683'
p469
sg21
VBarrows 74
p470
sg71
S'2:00PM'
p471
sg4
I0
sba(ipackage.Section
Section
p472
(dp473
g25
I0
sg64
S'3:59PM'
p474
sg9
g66
sg11
(lp475
S'We'
p476
asg19
S'12684'
p477
sg21
VBarrows 74
p478
sg71
S'3:00PM'
p479
sg4
I0
sba(ipackage.Section
Section
p480
(dp481
g25
I0
sg64
S'4:59PM'
p482
sg9
g66
sg11
(lp483
S'We'
p484
asg19
S'33447'
p485
sg21
VBarrows 74
p486
sg71
S'4:00PM'
p487
sg4
I0
sbasg25
I0
sg26
VKent Lightfoot
p488
sg28
g96
sbsS'Anthropology 135'
p489
(ipackage.Class
AClass
p490
(dp491
g4
I0
sg5
(lp492
(ipackage.Section
Section
p493
(dp494
g25
I0
sg64
S'12:29PM'
p495
sg9
g334
sg11
(lp496
S'Th'
p497
asg19
S'31783'
p498
sg21
VBarrows 61
p499
sg71
S'9:30AM'
p500
sg4
I0
sbasg7
V135
p501
sg9
S'LEC\nRegular'
p502
sg11
(lp503
S'Tu'
p504
asg15
S'9:30AM'
p505
sg17
S'12:29PM'
p506
sg19
V31782
p507
sg21
VBarrows 61
p508
sg23
(lp509
sg25
I0
sg26
VChristine Hastorf
p510
sg28
g96
sbsS'American Studies 191'
p511
(ipackage.Class
AClass
p512
(dp513
g4
I0
sg5
(lp514
sg7
V191
p515
sg9
S'SEM\nRegular'
p516
sg11
(lp517
S'Th'
p518
asg15
S'2:00PM'
p519
sg17
S'3:59PM'
p520
sg19
V12565
p521
sg21
VHaviland 214
p522
sg23
(lp523
sg25
I0
sg26
VKathleen Moran
p524
sg28
S'American Studies'
p525
sbsS'American Studies 190'
p526
(ipackage.Class
AClass
p527
(dp528
g4
I0
sg5
(lp529
sg7
V190
p530
sg9
S'IND\nRegular'
p531
sg11
(lp532
S'TBA'
p533
asg15
g533
sg17
g533
sg19
V12544
p534
sg21
VTBA
p535
sg23
(lp536
sg25
I0
sg26
VChristine Palmer
p537
sg28
g525
sbsS'American Studies 199'
p538
(ipackage.Class
AClass
p539
(dp540
g4
I0
sg5
(lp541
sg7
V199
p542
sg9
S'IND\nRegular'
p543
sg11
(lp544
g533
ag533
asg15
g533
sg17
g533
sg19
V12486
p545
sg21
VTBA
p546
sg23
(lp547
sg25
I0
sg26
VChristine Palmer
p548
sg28
g525
sbsS'American Studies C152'
p549
(ipackage.Class
AClass
p550
(dp551
g4
I0
sg5
(lp552
sg7
VC152
p553
sg9
S'LEC\nRegular'
p554
sg11
(lp555
S'Tu'
p556
aS'Th'
p557
asg15
S'12:30PM'
p558
sg17
S'1:59PM'
p559
sg19
V12580
p560
sg21
VBarrows 587
p561
sg23
(lp562
sg25
I0
sg26
VEnrique Lima
p563
sg28
g525
sbsS'Arabic 1A'
p564
(ipackage.Class
AClass
p565
(dp566
g4
I0
sg5
(lp567
sg7
V1A
p568
sg9
S'REC\nRegular'
p569
sg11
(lp570
S'Mo'
p571
aS'Tu'
p572
aS'We'
p573
aS'Th'
p574
aS'Fr'
p575
aS'Mo'
p576
aS'Tu'
p577
aS'We'
p578
aS'Th'
p579
aS'Fr'
p580
aS'Mo'
p581
aS'Tu'
p582
aS'We'
p583
aS'Th'
p584
aS'Fr'
p585
aS'Mo'
p586
aS'Tu'
p587
aS'We'
p588
aS'Th'
p589
aS'Fr'
p590
aS'Mo'
p591
aS'Tu'
p592
aS'We'
p593
aS'Th'
p594
aS'Fr'
p595
aS'Mo'
p596
aS'Tu'
p597
aS'We'
p598
aS'Th'
p599
aS'Fr'
p600
aS'Mo'
p601
aS'Tu'
p602
aS'We'
p603
aS'Th'
p604
aS'Fr'
p605
asg15
S'2:00PM'
p606
sg17
S'2:59PM'
p607
sg19
V12841
p608
sg21
VBarrows 118
p609
sg23
(lp610
sg25
I0
sg26
VMohamed Abdelaal
p611
sg28
g204
sbsS'African American Studies 100'
p612
(ipackage.Class
AClass
p613
(dp614
g4
I0
sg5
(lp615
sg7
V100
p616
sg9
S'LEC\nRegular'
p617
sg11
(lp618
S'Mo'
p619
aS'We'
p620
asg15
S'12:00PM'
p621
sg17
S'1:59PM'
p622
sg19
V12440
p623
sg21
VBarrows 151
p624
sg23
(lp625
sg25
I0
sg26
VLeigh Raiford
p626
sg28
g47
sbsS'Architecture 109'
p627
(ipackage.Class
AClass
p628
(dp629
g4
I0
sg5
(lp630
sg7
V109
p631
sg9
S'SEM\nRegular'
p632
sg11
(lp633
S'Th'
p634
aS'Mo'
p635
aS'We'
p636
aS'Fr'
p637
asg15
S'2:00PM'
p638
sg17
S'6:59PM'
p639
sg19
V34828
p640
sg21
VWurster 172
p641
sg23
(lp642
sg25
I0
sg26
VStaff
p643
sg28
g29
sbsS'Aerospace Studies 1A'
p644
(ipackage.Class
AClass
p645
(dp646
g4
I0
sg5
(lp647
sg7
V1A
p648
sg9
S'LEC\nRegular'
p649
sg11
(lp650
S'Fr'
p651
asg15
S'10:00AM'
p652
sg17
S'10:59AM'
p653
sg19
V13911
p654
sg21
VHearst Gym 188
p655
sg23
(lp656
sg25
I0
sg26
VAustin Hirsch,\u000aChristopher Carroll
p657
sg28
g344
sbsS'Architecture 98BC'
p658
(ipackage.Class
AClass
p659
(dp660
g4
I0
sg5
(lp661
sg7
V98BC
p662
sg9
S'SEM\nRegular'
p663
sg11
(lp664
S'Th'
p665
aS'Th'
p666
asg15
S'6:00PM'
p667
sg17
S'6:59PM'
p668
sg19
V12025
p669
sg21
VWurster 172
p670
sg23
(lp671
sg25
I0
sg26
VC Crysler,\u000aValentina Rozas Krause
p672
sg28
g29
sbsS'Architecture 150'
p673
(ipackage.Class
AClass
p674
(dp675
g4
I0
sg5
(lp676
sg7
V150
p677
sg9
S'LEC\nRegular'
p678
sg11
(lp679
S'Tu'
p680
aS'Th'
p681
asg15
S'8:00AM'
p682
sg17
S'9:29AM'
p683
sg19
V12058
p684
sg21
VWurster 112
p685
sg23
(lp686
(ipackage.Section
Section
p687
(dp688
g25
I0
sg64
S'12:59PM'
p689
sg9
g66
sg11
(lp690
S'Th'
p691
asg19
S'12061'
p692
sg21
VWurster 479
p693
sg71
S'10:00AM'
p694
sg4
I0
sba(ipackage.Section
Section
p695
(dp696
g25
I0
sg64
S'11:59AM'
p697
sg9
g66
sg11
(lp698
S'We'
p699
asg19
S'12062'
p700
sg21
VWurster 479
p701
sg71
S'9:00AM'
p702
sg4
I0
sba(ipackage.Section
Section
p703
(dp704
g25
I0
sg64
S'12:59PM'
p705
sg9
g66
sg11
(lp706
S'Tu'
p707
asg19
S'12063'
p708
sg21
VWurster 479
p709
sg71
S'10:00AM'
p710
sg4
I0
sba(ipackage.Section
Section
p711
(dp712
g25
I0
sg64
S'12:59PM'
p713
sg9
g66
sg11
(lp714
S'Fr'
p715
asg19
S'12056'
p716
sg21
VWurster 479
p717
sg71
S'10:00AM'
p718
sg4
I0
sbasg25
I0
sg26
VR.Gary Black
p719
sg28
g29
sbsS'African American Studies 199'
p720
(ipackage.Class
AClass
p721
(dp722
g4
I0
sg5
(lp723
sg7
V199
p724
sg9
S'IND\nRegular'
p725
sg11
(lp726
g533
ag533
ag533
asg15
g533
sg17
g533
sg19
V12422
p727
sg21
VTBA
p728
sg23
(lp729
sg25
I0
sg26
VStaff
p730
sg28
g47
sbsS'African American Studies 198'
p731
(ipackage.Class
AClass
p732
(dp733
g4
I0
sg5
(lp734
sg7
V198
p735
sg9
S'GRP\nRegular'
p736
sg11
(lp737
g533
asg15
g533
sg17
g533
sg19
V32314
p738
sg21
VTBA
p739
sg23
(lp740
sg25
I0
sg26
VStaff
p741
sg28
g47
sbsS'Anthropology R5B'
p742
(ipackage.Class
AClass
p743
(dp744
g4
I0
sg5
(lp745
sg7
VR5B
p746
sg9
S'LEC\nRegular'
p747
sg11
(lp748
S'Tu'
p749
aS'Th'
p750
aS'Mo'
p751
aS'We'
p752
aS'Fr'
p753
aS'Tu'
p754
aS'Th'
p755
aS'Mo'
p756
aS'We'
p757
asg15
S'5:00PM'
p758
sg17
S'6:29PM'
p759
sg19
V12515
p760
sg21
VKroeber 115
p761
sg23
(lp762
sg25
I0
sg26
VCelise Chilcote,\u000aLaurie Wilkie
p763
sg28
g96
sbsS'African American Studies 111'
p764
(ipackage.Class
AClass
p765
(dp766
g4
I0
sg5
(lp767
sg7
V111
p768
sg9
S'LEC\nRegular'
p769
sg11
(lp770
S'Tu'
p771
aS'Th'
p772
asg15
S'12:30PM'
p773
sg17
S'1:59PM'
p774
sg19
V12405
p775
sg21
VBarrows 20
p776
sg23
(lp777
sg25
I0
sg26
VStephen Small
p778
sg28
g47
sbsS'African American Studies 116'
p779
(ipackage.Class
AClass
p780
(dp781
g4
I0
sg5
(lp782
sg7
V116
p783
sg9
S'LEC\nRegular'
p784
sg11
(lp785
S'Mo'
p786
aS'We'
p787
asg15
S'10:00AM'
p788
sg17
S'11:59AM'
p789
sg19
V12398
p790
sg21
VMoffitt Library 145
p791
sg23
(lp792
sg25
I0
sg26
VUla Taylor
p793
sg28
g47
sbsS'Anthropology 122A'
p794
(ipackage.Class
AClass
p795
(dp796
g4
I0
sg5
(lp797
sg7
V122A
p798
sg9
S'LEC\nRegular'
p799
sg11
(lp800
S'Tu'
p801
aS'Th'
p802
asg15
S'12:30PM'
p803
sg17
S'1:59PM'
p804
sg19
V31734
p805
sg21
VLeConte 3
p806
sg23
(lp807
sg25
I0
sg26
VJun Sunseri
p808
sg28
g96
sbsS'African American Studies C134'
p809
(ipackage.Class
AClass
p810
(dp811
g4
I0
sg5
(lp812
sg7
VC134
p813
sg9
S'LEC\nRegular'
p814
sg11
(lp815
S'Mo'
p816
asg15
S'2:00PM'
p817
sg17
S'4:59PM'
p818
sg19
V12389
p819
sg21
VKroeber 155
p820
sg23
(lp821
sg25
I0
sg26
VMichel Laguerre
p822
sg28
g47
sbsS'African American Studies 11A'
p823
(ipackage.Class
AClass
p824
(dp825
g4
I0
sg5
(lp826
sg7
V11A
p827
sg9
S'REC\nRegular'
p828
sg11
(lp829
S'Mo'
p830
aS'Tu'
p831
aS'We'
p832
aS'Th'
p833
asg15
S'9:00AM'
p834
sg17
S'9:59AM'
p835
sg19
V12435
p836
sg21
VGiannini 201
p837
sg23
(lp838
sg25
I0
sg26
VDavid Kyeu
p839
sg28
g47
sbsS'African American Studies R1A'
p840
(ipackage.Class
AClass
p841
(dp842
g4
I0
sg5
(lp843
sg7
VR1A
p844
sg9
S'LEC\nRegular'
p845
sg11
(lp846
S'Mo'
p847
aS'We'
p848
aS'Fr'
p849
asg15
S'9:00AM'
p850
sg17
S'9:59AM'
p851
sg19
V12448
p852
sg21
VDwinelle 233
p853
sg23
(lp854
(ipackage.Section
Section
p855
(dp856
g25
I0
sg64
S'10:59AM'
p857
sg9
g66
sg11
(lp858
S'Mo'
p859
asg19
S'32398'
p860
sg21
VDwinelle 233
p861
sg71
S'10:00AM'
p862
sg4
I0
sbasg25
I0
sg26
VAparajita Nanda
p863
sg28
g47
sbsS'African American Studies R1B'
p864
(ipackage.Class
AClass
p865
(dp866
g4
I0
sg5
(lp867
sg7
VR1B
p868
sg9
S'LEC\nRegular'
p869
sg11
(lp870
S'Mo'
p871
aS'We'
p872
aS'Fr'
p873
asg15
S'12:00PM'
p874
sg17
S'12:59PM'
p875
sg19
V32298
p876
sg21
VBarrows 180
p877
sg23
(lp878
sg25
I0
sg26
VChristina Bush
p879
sg28
g47
sbsS'African American Studies 123'
p880
(ipackage.Class
AClass
p881
(dp882
g4
I0
sg5
(lp883
sg7
V123
p884
sg9
S'LEC\nRegular'
p885
sg11
(lp886
S'Tu'
p887
aS'Th'
p888
asg15
S'3:30PM'
p889
sg17
S'4:59PM'
p890
sg19
V31800
p891
sg21
VLewis 9
p892
sg23
(lp893
sg25
I0
sg26
VStephen Small
p894
sg28
g47
sbsS'Arabic 111B'
p895
(ipackage.Class
AClass
p896
(dp897
g4
I0
sg5
(lp898
sg7
V111B
p899
sg9
S'LEC\nRegular'
p900
sg11
(lp901
S'Tu'
p902
aS'Th'
p903
asg15
S'2:00PM'
p904
sg17
S'3:29PM'
p905
sg19
V34727
p906
sg21
VBarrows 78
p907
sg23
(lp908
sg25
I0
sg26
VAhmad Diab
p909
sg28
g204
sbsS'Armenian 101A'
p910
(ipackage.Class
AClass
p911
(dp912
g4
I0
sg5
(lp913
sg7
V101A
p914
sg9
S'LEC\nRegular'
p915
sg11
(lp916
S'Tu'
p917
aS'Th'
p918
asg15
S'12:30PM'
p919
sg17
S'1:59PM'
p920
sg19
V13087
p921
sg21
VDwinelle 263
p922
sg23
(lp923
sg25
I0
sg26
VHasmig Seropian
p924
sg28
S'Armenian'
p925
sbsS'American Studies C171'
p926
(ipackage.Class
AClass
p927
(dp928
g4
I0
sg5
(lp929
sg7
VC171
p930
sg9
S'LEC\nRegular'
p931
sg11
(lp932
S'Tu'
p933
aS'Th'
p934
asg15
S'2:00PM'
p935
sg17
S'3:29PM'
p936
sg19
V12579
p937
sg21
VWurster 101
p938
sg23
(lp939
sg25
I0
sg26
VLouise Mozingo
p940
sg28
g525
sbsS'African American Studies H195B'
p941
(ipackage.Class
AClass
p942
(dp943
g4
I0
sg5
(lp944
sg7
VH195B
p945
sg9
S'IND\nRegular'
p946
sg11
(lp947
S'Mo'
p948
asg15
S'12:00AM'
p949
sg17
S'12:00AM'
p950
sg19
V12417
p951
sg21
VTBA
p952
sg23
(lp953
sg25
I0
sg26
VStaff
p954
sg28
g47
sbsS'African American Studies H195A'
p955
(ipackage.Class
AClass
p956
(dp957
g4
I0
sg5
(lp958
sg7
VH195A
p959
sg9
S'IND\nRegular'
p960
sg11
(lp961
g533
asg15
g533
sg17
g533
sg19
V12391
p962
sg21
VTBA
p963
sg23
(lp964
sg25
I0
sg26
VStaff
p965
sg28
g47
sbsS'African American Studies 139'
p966
(ipackage.Class
AClass
p967
(dp968
g4
I0
sg5
(lp969
sg7
V139
p970
sg9
S'LEC\nRegular'
p971
sg11
(lp972
S'Tu'
p973
aS'Th'
p974
asg15
S'2:00PM'
p975
sg17
S'3:29PM'
p976
sg19
V12390
p977
sg21
VKroeber 155
p978
sg23
(lp979
sg25
I0
sg26
VNikki Jones
p980
sg28
g47
sbsS'Anthropology 136G'
p981
(ipackage.Class
AClass
p982
(dp983
g4
I0
sg5
(lp984
sg7
V136G
p985
sg9
S'LEC\nRegular'
p986
sg11
(lp987
S'Tu'
p988
aS'Th'
p989
asg15
S'2:00PM'
p990
sg17
S'3:29PM'
p991
sg19
V12605
p992
sg21
V2251 College 101
p993
sg23
(lp994
sg25
I0
sg26
VRosemary Joyce
p995
sg28
g96
sbsS'Anthropology 136F'
p996
(ipackage.Class
AClass
p997
(dp998
g4
I0
sg5
(lp999
sg7
V136F
p1000
sg9
S'LEC\nRegular'
p1001
sg11
(lp1002
S'Tu'
p1003
aS'Th'
p1004
asg15
S'11:00AM'
p1005
sg17
S'12:29PM'
p1006
sg19
V32893
p1007
sg21
VMulford 230
p1008
sg23
(lp1009
sg25
I0
sg26
VRosemary Joyce
p1010
sg28
g96
sbsS'African American Studies 137'
p1011
(ipackage.Class
AClass
p1012
(dp1013
g4
I0
sg5
(lp1014
sg7
V137
p1015
sg9
S'SEM\nRegular'
p1016
sg11
(lp1017
S'We'
p1018
asg15
S'2:00PM'
p1019
sg17
S'4:59PM'
p1020
sg19
V12393
p1021
sg21
VBarrows 174
p1022
sg23
(lp1023
sg25
I0
sg26
VMichel Laguerre
p1024
sg28
g47
sbsS'African American Studies 198BC'
p1025
(ipackage.Class
AClass
p1026
(dp1027
g4
I0
sg5
(lp1028
sg7
V198BC
p1029
sg9
S'SEM\nRegular'
p1030
sg11
(lp1031
S'Tu'
p1032
aS'Tu'
p1033
asg15
S'6:00PM'
p1034
sg17
S'6:59PM'
p1035
sg19
V12416
p1036
sg21
VBarrows 54
p1037
sg23
(lp1038
sg25
I0
sg26
VMichael Cohen
p1039
sg28
g47
sbsS'Armenian 1A'
p1040
(ipackage.Class
AClass
p1041
(dp1042
g4
I0
sg5
(lp1043
sg7
V1A
p1044
sg9
S'SES\nRegular'
p1045
sg11
(lp1046
S'Tu'
p1047
aS'Th'
p1048
asg15
S'11:00AM'
p1049
sg17
S'12:29PM'
p1050
sg19
V13086
p1051
sg21
VDwinelle 89
p1052
sg23
(lp1053
sg25
I0
sg26
VHasmig Seropian
p1054
sg28
g925
sbsS'African American Studies 4A'
p1055
(ipackage.Class
AClass
p1056
(dp1057
g4
I0
sg5
(lp1058
sg7
V4A
p1059
sg9
S'LEC\nRegular'
p1060
sg11
(lp1061
S'Tu'
p1062
aS'Th'
p1063
asg15
S'3:30PM'
p1064
sg17
S'4:59PM'
p1065
sg19
V12436
p1066
sg21
VMoffitt Library 145
p1067
sg23
(lp1068
(ipackage.Section
Section
p1069
(dp1070
g25
I0
sg64
S'8:59AM'
p1071
sg9
g66
sg11
(lp1072
S'We'
p1073
asg19
S'12437'
p1074
sg21
VBarrows 155
p1075
sg71
S'8:00AM'
p1076
sg4
I0
sba(ipackage.Section
Section
p1077
(dp1078
g25
I0
sg64
S'12:59PM'
p1079
sg9
g66
sg11
(lp1080
S'We'
p1081
asg19
S'12438'
p1082
sg21
VBarrows 136
p1083
sg71
S'12:00PM'
p1084
sg4
I0
sba(ipackage.Section
Section
p1085
(dp1086
g25
I0
sg64
S'1:59PM'
p1087
sg9
g66
sg11
(lp1088
S'Mo'
p1089
asg19
S'12439'
p1090
sg21
VBarrows 650
p1091
sg71
S'1:00PM'
p1092
sg4
I0
sbasg25
I0
sg26
VG. Ugo NWOKEJ
p1093
sg28
g47
sbsS'African American Studies 24'
p1094
(ipackage.Class
AClass
p1095
(dp1096
g4
I0
sg5
(lp1097
sg7
V24
p1098
sg9
S'SEM\nRegular'
p1099
sg11
(lp1100
S'Tu'
p1101
asg15
S'10:00AM'
p1102
sg17
S'11:59AM'
p1103
sg19
V33468
p1104
sg21
VBarrows 190
p1105
sg23
(lp1106
sg25
I0
sg26
VStephen Small
p1107
sg28
g47
sbsS'Anthropology 114'
p1108
(ipackage.Class
AClass
p1109
(dp1110
g4
I0
sg5
(lp1111
sg7
V114
p1112
sg9
S'LEC\nRegular'
p1113
sg11
(lp1114
S'Tu'
p1115
aS'Th'
p1116
asg15
S'9:30AM'
p1117
sg17
S'10:59AM'
p1118
sg19
V31668
p1119
sg21
VLeConte 4
p1120
sg23
(lp1121
(ipackage.Section
Section
p1122
(dp1123
g25
I0
sg64
S'9:59AM'
p1124
sg9
g66
sg11
(lp1125
S'Mo'
p1126
asg19
S'31667'
p1127
sg21
V2224 Piedmont 15
p1128
sg71
S'9:00AM'
p1129
sg4
I0
sba(ipackage.Section
Section
p1130
(dp1131
g25
I0
sg64
S'10:59AM'
p1132
sg9
g66
sg11
(lp1133
S'Mo'
p1134
asg19
S'31675'
p1135
sg21
V2224 Piedmont 15
p1136
sg71
S'10:00AM'
p1137
sg4
I0
sba(ipackage.Section
Section
p1138
(dp1139
g25
I0
sg64
S'11:59AM'
p1140
sg9
g66
sg11
(lp1141
S'Mo'
p1142
asg19
S'31676'
p1143
sg21
V2224 Piedmont 15
p1144
sg71
S'11:00AM'
p1145
sg4
I0
sba(ipackage.Section
Section
p1146
(dp1147
g25
I0
sg64
S'4:59PM'
p1148
sg9
g66
sg11
(lp1149
S'Mo'
p1150
asg19
S'31677'
p1151
sg21
V2224 Piedmont 15
p1152
sg71
S'4:00PM'
p1153
sg4
I0
sba(ipackage.Section
Section
p1154
(dp1155
g25
I0
sg64
S'11:59AM'
p1156
sg9
g66
sg11
(lp1157
S'Th'
p1158
asg19
S'31678'
p1159
sg21
V2224 Piedmont 15
p1160
sg71
S'11:00AM'
p1161
sg4
I0
sba(ipackage.Section
Section
p1162
(dp1163
g25
I0
sg64
S'12:59PM'
p1164
sg9
g66
sg11
(lp1165
S'Th'
p1166
asg19
S'31679'
p1167
sg21
V2224 Piedmont 15
p1168
sg71
S'12:00PM'
p1169
sg4
I0
sba(ipackage.Section
Section
p1170
(dp1171
g25
I0
sg64
S'10:59AM'
p1172
sg9
g66
sg11
(lp1173
S'Fr'
p1174
asg19
S'31681'
p1175
sg21
V2251 College 101
p1176
sg71
S'10:00AM'
p1177
sg4
I0
sba(ipackage.Section
Section
p1178
(dp1179
g25
I0
sg64
S'11:59AM'
p1180
sg9
g66
sg11
(lp1181
S'Fr'
p1182
asg19
S'31682'
p1183
sg21
V2251 College 101
p1184
sg71
S'11:00AM'
p1185
sg4
I0
sbasg25
I0
sg26
VMary George
p1186
sg28
g96
sbsS'Anthropology 115'
p1187
(ipackage.Class
AClass
p1188
(dp1189
g4
I0
sg5
(lp1190
sg7
V115
p1191
sg9
S'LEC\nRegular'
p1192
sg11
(lp1193
S'Tu'
p1194
aS'Th'
p1195
asg15
S'11:00AM'
p1196
sg17
S'12:29PM'
p1197
sg19
V31683
p1198
sg21
VKroeber 155
p1199
sg23
(lp1200
(ipackage.Section
Section
p1201
(dp1202
g25
I0
sg64
S'10:59AM'
p1203
sg9
g66
sg11
(lp1204
S'Fr'
p1205
asg19
S'31684'
p1206
sg21
V2224 Piedmont 15
p1207
sg71
S'10:00AM'
p1208
sg4
I0
sba(ipackage.Section
Section
p1209
(dp1210
g25
I0
sg64
S'10:59AM'
p1211
sg9
g66
sg11
(lp1212
S'We'
p1213
asg19
S'31685'
p1214
sg21
V2224 Piedmont 15
p1215
sg71
S'10:00AM'
p1216
sg4
I0
sba(ipackage.Section
Section
p1217
(dp1218
g25
I0
sg64
S'11:59AM'
p1219
sg9
g66
sg11
(lp1220
S'We'
p1221
asg19
S'31686'
p1222
sg21
V2224 Piedmont 15
p1223
sg71
S'11:00AM'
p1224
sg4
I0
sba(ipackage.Section
Section
p1225
(dp1226
g25
I0
sg64
S'12:59PM'
p1227
sg9
g66
sg11
(lp1228
S'We'
p1229
asg19
S'31687'
p1230
sg21
V2224 Piedmont 15
p1231
sg71
S'12:00PM'
p1232
sg4
I0
sbasg25
I0
sg26
VNancy Scheper-Hughes
p1233
sg28
g96
sbsS'Anthropology 119'
p1234
(ipackage.Class
AClass
p1235
(dp1236
g4
I0
sg5
(lp1237
sg7
V119
p1238
sg9
S'LEC\nRegular'
p1239
sg11
(lp1240
S'Tu'
p1241
aS'Th'
p1242
asg15
S'9:30AM'
p1243
sg17
S'10:59AM'
p1244
sg19
V12489
p1245
sg21
VKroeber 221
p1246
sg23
(lp1247
sg25
I0
sg26
VStefania Pandolfo
p1248
sg28
g96
sbsS'Anthropology 198'
p1249
(ipackage.Class
AClass
p1250
(dp1251
g4
I0
sg5
(lp1252
sg7
V198
p1253
sg9
S'GRP\nRegular'
p1254
sg11
(lp1255
g533
aS'Tu'
p1256
aS'We'
p1257
asg15
S'2:00PM'
p1258
sg17
S'3:59PM'
p1259
sg19
V34749
p1260
sg21
VKroeber 221
p1261
sg23
(lp1262
sg25
I0
sg26
VAntonia Rivas,\u000aLaurie Wilkie
p1263
sg28
g96
sbsS'African American Studies 30A'
p1264
(ipackage.Class
AClass
p1265
(dp1266
g4
I0
sg5
(lp1267
sg7
V30A
p1268
sg9
S'LEC\nRegular'
p1269
sg11
(lp1270
S'Th'
p1271
asg15
S'2:00PM'
p1272
sg17
S'2:59PM'
p1273
sg19
V34813
p1274
sg21
VBarrows 190
p1275
sg23
(lp1276
sg25
I0
sg26
VSam Mchombo
p1277
sg28
g47
sbsS'American Studies H195'
p1278
(ipackage.Class
AClass
p1279
(dp1280
g4
I0
sg5
(lp1281
sg7
VH195
p1282
sg9
S'SEM\nRegular'
p1283
sg11
(lp1284
S'We'
p1285
asg15
S'2:00PM'
p1286
sg17
S'3:59PM'
p1287
sg19
V12504
p1288
sg21
VEvans 65
p1289
sg23
(lp1290
sg25
I0
sg26
VChristine Palmer
p1291
sg28
g525
sbsS'Anthropology 169C'
p1292
(ipackage.Class
AClass
p1293
(dp1294
g4
I0
sg5
(lp1295
sg7
V169C
p1296
sg9
S'LEC\nRegular'
p1297
sg11
(lp1298
S'Tu'
p1299
aS'Th'
p1300
asg15
S'11:00AM'
p1301
sg17
S'12:29PM'
p1302
sg19
V31797
p1303
sg21
VKroeber 221
p1304
sg23
(lp1305
(ipackage.Section
Section
p1306
(dp1307
g25
I0
sg64
S'2:59PM'
p1308
sg9
g66
sg11
(lp1309
S'Tu'
p1310
asg19
S'31798'
p1311
sg21
V2224 Piedmont 15
p1312
sg71
S'2:00PM'
p1313
sg4
I0
sba(ipackage.Section
Section
p1314
(dp1315
g25
I0
sg64
S'1:59PM'
p1316
sg9
g66
sg11
(lp1317
S'Th'
p1318
asg19
S'31799'
p1319
sg21
V2224 Piedmont 15
p1320
sg71
S'1:00PM'
p1321
sg4
I0
sbasg25
I0
sg26
VWilliam Hanks
p1322
sg28
g96
sbsS'Aerospace Studies 2A'
p1323
(ipackage.Class
AClass
p1324
(dp1325
g4
I0
sg5
(lp1326
sg7
V2A
p1327
sg9
S'LEC\nRegular'
p1328
sg11
(lp1329
S'Fr'
p1330
asg15
S'11:00AM'
p1331
sg17
S'11:59AM'
p1332
sg19
V13910
p1333
sg21
VHearst Gym 188
p1334
sg23
(lp1335
sg25
I0
sg26
VAustin Hirsch,\u000aChristopher Carroll
p1336
sg28
g344
sbsS'African American Studies 27AC'
p1337
(ipackage.Class
AClass
p1338
(dp1339
g4
I0
sg5
(lp1340
sg7
V27AC
p1341
sg9
S'LEC\nRegular'
p1342
sg11
(lp1343
S'Tu'
p1344
aS'Th'
p1345
asg15
S'12:30PM'
p1346
sg17
S'1:59PM'
p1347
sg19
V12454
p1348
sg21
VDwinelle 145
p1349
sg23
(lp1350
(ipackage.Section
Section
p1351
(dp1352
g25
I0
sg64
S'6:59PM'
p1353
sg9
g66
sg11
(lp1354
S'We'
p1355
asg19
S'12455'
p1356
sg21
VDwinelle 106
p1357
sg71
S'6:00PM'
p1358
sg4
I0
sba(ipackage.Section
Section
p1359
(dp1360
g25
I0
sg64
S'7:59PM'
p1361
sg9
g66
sg11
(lp1362
S'We'
p1363
asg19
S'12456'
p1364
sg21
VDwinelle 106
p1365
sg71
S'7:00PM'
p1366
sg4
I0
sba(ipackage.Section
Section
p1367
(dp1368
g25
I0
sg64
S'1:59PM'
p1369
sg9
g66
sg11
(lp1370
S'We'
p1371
asg19
S'12457'
p1372
sg21
VEvans 75
p1373
sg71
S'1:00PM'
p1374
sg4
I0
sba(ipackage.Section
Section
p1375
(dp1376
g25
I0
sg64
S'5:59PM'
p1377
sg9
g66
sg11
(lp1378
S'We'
p1379
asg19
S'12458'
p1380
sg21
VDwinelle 251
p1381
sg71
S'5:00PM'
p1382
sg4
I0
sba(ipackage.Section
Section
p1383
(dp1384
g25
I0
sg64
S'6:59PM'
p1385
sg9
g66
sg11
(lp1386
S'We'
p1387
asg19
S'12459'
p1388
sg21
VDwinelle 251
p1389
sg71
S'6:00PM'
p1390
sg4
I0
sba(ipackage.Section
Section
p1391
(dp1392
g25
I0
sg64
S'3:59PM'
p1393
sg9
g66
sg11
(lp1394
S'Fr'
p1395
asg19
S'32156'
p1396
sg21
VBarrows 54
p1397
sg71
S'3:00PM'
p1398
sg4
I0
sba(ipackage.Section
Section
p1399
(dp1400
g25
I0
sg64
S'2:59PM'
p1401
sg9
g66
sg11
(lp1402
S'Th'
p1403
asg19
S'32157'
p1404
sg21
VHaviland 321
p1405
sg71
S'2:00PM'
p1406
sg4
I0
sba(ipackage.Section
Section
p1407
(dp1408
g25
I0
sg64
S'3:59PM'
p1409
sg9
g66
sg11
(lp1410
S'Th'
p1411
asg19
S'32158'
p1412
sg21
VDwinelle 130
p1413
sg71
S'3:00PM'
p1414
sg4
I0
sbasg25
I0
sg26
VMichael Cohen
p1415
sg28
g47
sbsS'Aerospace Studies 135A'
p1416
(ipackage.Class
AClass
p1417
(dp1418
g4
I0
sg5
(lp1419
sg7
V135A
p1420
sg9
S'SEM\nRegular'
p1421
sg11
(lp1422
S'Mo'
p1423
asg15
S'4:00PM'
p1424
sg17
S'6:59PM'
p1425
sg19
V12450
p1426
sg21
VHearst Gym 144
p1427
sg23
(lp1428
sg25
I0
sg26
VChristopher Carroll,\u000aChristopher Francis
p1429
sg28
g344
sbsS'African American Studies 5A'
p1430
(ipackage.Class
AClass
p1431
(dp1432
g4
I0
sg5
(lp1433
sg7
V5A
p1434
sg9
S'LEC\nRegular'
p1435
sg11
(lp1436
S'Tu'
p1437
aS'Th'
p1438
asg15
S'11:00AM'
p1439
sg17
S'12:29PM'
p1440
sg19
V12475
p1441
sg21
VBarrows 20
p1442
sg23
(lp1443
(ipackage.Section
Section
p1444
(dp1445
g25
I0
sg64
S'8:59AM'
p1446
sg9
g66
sg11
(lp1447
S'We'
p1448
asg19
S'12476'
p1449
sg21
VBarrows 151
p1450
sg71
S'8:00AM'
p1451
sg4
I0
sba(ipackage.Section
Section
p1452
(dp1453
g25
I0
sg64
S'10:59AM'
p1454
sg9
g66
sg11
(lp1455
S'We'
p1456
asg19
S'12477'
p1457
sg21
VLatimer 102
p1458
sg71
S'10:00AM'
p1459
sg4
I0
sba(ipackage.Section
Section
p1460
(dp1461
g25
I0
sg64
S'2:59PM'
p1462
sg9
g66
sg11
(lp1463
S'Th'
p1464
asg19
S'12478'
p1465
sg21
VValley Life Sciences 2038
p1466
sg71
S'2:00PM'
p1467
sg4
I0
sbasg25
I0
sg26
VBrandi Catanese
p1468
sg28
g47
sbsS'Anthropology 189'
p1469
(ipackage.Class
AClass
p1470
(dp1471
g4
I0
sg5
(lp1472
sg7
V189
p1473
sg9
S'LEC\nRegular'
p1474
sg11
(lp1475
S'Mo'
p1476
aS'We'
p1477
aS'Fr'
p1478
aS'Tu'
p1479
aS'Th'
p1480
aS'Tu'
p1481
aS'Th'
p1482
asg15
S'2:00PM'
p1483
sg17
S'3:29PM'
p1484
sg19
V12599
p1485
sg21
VDwinelle 88
p1486
sg23
(lp1487
sg25
I0
sg26
VMarlee Tichenor
p1488
sg28
g96
sbsS'Anthropology C125A'
p1489
(ipackage.Class
AClass
p1490
(dp1491
g4
I0
sg5
(lp1492
sg7
VC125A
p1493
sg9
S'LEC\nRegular'
p1494
sg11
(lp1495
S'Tu'
p1496
aS'Th'
p1497
asg15
S'3:30PM'
p1498
sg17
S'4:59PM'
p1499
sg19
V31735
p1500
sg21
V2251 College 101
p1501
sg23
(lp1502
sg25
I0
sg26
VJunko Habu
p1503
sg28
g96
sbsS'Anthropology 121C'
p1504
(ipackage.Class
AClass
p1505
(dp1506
g4
I0
sg5
(lp1507
(ipackage.Section
Section
p1508
(dp1509
g25
I0
sg64
S'11:59AM'
p1510
sg9
g334
sg11
(lp1511
S'We'
p1512
asg19
S'31733'
p1513
sg21
VBarrows 61
p1514
sg71
S'9:00AM'
p1515
sg4
I0
sbasg7
V121C
p1516
sg9
S'LEC\nRegular'
p1517
sg11
(lp1518
S'Mo'
p1519
asg15
S'9:00AM'
p1520
sg17
S'11:59AM'
p1521
sg19
V31732
p1522
sg21
VBarrows 61
p1523
sg23
(lp1524
sg25
I0
sg26
VLaurie Wilkie
p1525
sg28
g96
sbsS'Anthropology 1'
p1526
(ipackage.Class
AClass
p1527
(dp1528
g4
I0
sg5
(lp1529
sg7
V1
p1530
sg9
S'LEC\nRegular'
p1531
sg11
(lp1532
S'Tu'
p1533
aS'Th'
p1534
asg15
S'12:30PM'
p1535
sg17
S'1:59PM'
p1536
sg19
V31342
p1537
sg21
VHaas Faculty Wing F295
p1538
sg23
(lp1539
(ipackage.Section
Section
p1540
(dp1541
g25
I0
sg64
S'1:59PM'
p1542
sg9
g66
sg11
(lp1543
S'Mo'
p1544
asg19
S'31344'
p1545
sg21
VBarrows 65
p1546
sg71
S'1:00PM'
p1547
sg4
I0
sba(ipackage.Section
Section
p1548
(dp1549
g25
I0
sg64
S'4:59PM'
p1550
sg9
g66
sg11
(lp1551
S'Mo'
p1552
asg19
S'31345'
p1553
sg21
VBarrows 65
p1554
sg71
S'4:00PM'
p1555
sg4
I0
sba(ipackage.Section
Section
p1556
(dp1557
g25
I0
sg64
S'9:59AM'
p1558
sg9
g66
sg11
(lp1559
S'Tu'
p1560
asg19
S'31409'
p1561
sg21
VBarrows 65
p1562
sg71
S'9:00AM'
p1563
sg4
I0
sba(ipackage.Section
Section
p1564
(dp1565
g25
I0
sg64
S'10:59AM'
p1566
sg9
g66
sg11
(lp1567
S'Tu'
p1568
asg19
S'31410'
p1569
sg21
VBarrows 65
p1570
sg71
S'10:00AM'
p1571
sg4
I0
sba(ipackage.Section
Section
p1572
(dp1573
g25
I0
sg64
S'11:59AM'
p1574
sg9
g66
sg11
(lp1575
S'Tu'
p1576
asg19
S'31411'
p1577
sg21
VBarrows 65
p1578
sg71
S'11:00AM'
p1579
sg4
I0
sba(ipackage.Section
Section
p1580
(dp1581
g25
I0
sg64
S'2:59PM'
p1582
sg9
g66
sg11
(lp1583
S'Tu'
p1584
asg19
S'31412'
p1585
sg21
VBarrows 65
p1586
sg71
S'2:00PM'
p1587
sg4
I0
sba(ipackage.Section
Section
p1588
(dp1589
g25
I0
sg64
S'3:59PM'
p1590
sg9
g66
sg11
(lp1591
S'Tu'
p1592
asg19
S'31413'
p1593
sg21
VBarrows 65
p1594
sg71
S'3:00PM'
p1595
sg4
I0
sba(ipackage.Section
Section
p1596
(dp1597
g25
I0
sg64
S'4:59PM'
p1598
sg9
g66
sg11
(lp1599
S'Tu'
p1600
asg19
S'31414'
p1601
sg21
VBarrows 65
p1602
sg71
S'4:00PM'
p1603
sg4
I0
sba(ipackage.Section
Section
p1604
(dp1605
g25
I0
sg64
S'9:59AM'
p1606
sg9
g66
sg11
(lp1607
S'Th'
p1608
asg19
S'31415'
p1609
sg21
VBarrows 65
p1610
sg71
S'9:00AM'
p1611
sg4
I0
sba(ipackage.Section
Section
p1612
(dp1613
g25
I0
sg64
S'10:59AM'
p1614
sg9
g66
sg11
(lp1615
S'Th'
p1616
asg19
S'33665'
p1617
sg21
VBarrows 65
p1618
sg71
S'10:00AM'
p1619
sg4
I0
sbasg25
I0
sg26
VLisa Maher
p1620
sg28
g96
sbsS'Arabic 100A'
p1621
(ipackage.Class
AClass
p1622
(dp1623
g4
I0
sg5
(lp1624
sg7
V100A
p1625
sg9
S'LEC\nRegular'
p1626
sg11
(lp1627
S'Mo'
p1628
aS'We'
p1629
aS'Fr'
p1630
aS'Mo'
p1631
aS'We'
p1632
aS'Fr'
p1633
asg15
S'2:00PM'
p1634
sg17
S'2:59PM'
p1635
sg19
V12866
p1636
sg21
VBarrows 252
p1637
sg23
(lp1638
sg25
I0
sg26
VElsa Elmahdy
p1639
sg28
g204
sbsS'Anthropology 138A'
p1640
(ipackage.Class
AClass
p1641
(dp1642
g4
I0
sg5
(lp1643
sg7
V138A
p1644
sg9
S'LEC\nRegular'
p1645
sg11
(lp1646
S'Tu'
p1647
aS'Th'
p1648
asg15
S'3:30PM'
p1649
sg17
S'4:59PM'
p1650
sg19
V12810
p1651
sg21
VLeConte 3
p1652
sg23
(lp1653
sg25
I0
sg26
VDaniel Fisher
p1654
sg28
g96
sbsS'African American Studies 158A'
p1655
(ipackage.Class
AClass
p1656
(dp1657
g4
I0
sg5
(lp1658
sg7
V158A
p1659
sg9
S'SEM\nRegular'
p1660
sg11
(lp1661
S'Tu'
p1662
aS'Th'
p1663
asg15
S'2:00PM'
p1664
sg17
S'3:29PM'
p1665
sg19
V12406
p1666
sg21
VGenetics & Plant Bio 103
p1667
sg23
(lp1668
sg25
I0
sg26
VAya De Leon
p1669
sg28
g47
sbsS'Architecture 39'
p1670
(ipackage.Class
AClass
p1671
(dp1672
g4
I0
sg5
(lp1673
sg7
V39
p1674
sg9
S'SEM\nRegular'
p1675
sg11
(lp1676
S'Th'
p1677
asg15
S'12:30PM'
p1678
sg17
S'1:59PM'
p1679
sg19
V33706
p1680
sg21
VWurster 104
p1681
sg23
(lp1682
sg25
I0
sg26
VM Ubbelohde
p1683
sg28
g29
sbsS'Architecture 100C'
p1684
(ipackage.Class
AClass
p1685
(dp1686
g4
I0
sg5
(lp1687
sg7
V100C
p1688
sg9
S'STD\nRegular'
p1689
sg11
(lp1690
S'Mo'
p1691
aS'We'
p1692
aS'Mo'
p1693
aS'We'
p1694
aS'Mo'
p1695
aS'We'
p1696
aS'Mo'
p1697
aS'We'
p1698
aS'Mo'
p1699
aS'We'
p1700
ag533
asg15
g533
sg17
g533
sg19
V34824
p1701
sg21
VTBA
p1702
sg23
(lp1703
sg25
I0
sg26
VStaff
p1704
sg28
g29
sbsS'African American Studies 98BC'
p1705
(ipackage.Class
AClass
p1706
(dp1707
g4
I0
sg5
(lp1708
sg7
V98BC
p1709
sg9
S'SEM\nRegular'
p1710
sg11
(lp1711
S'Tu'
p1712
aS'Tu'
p1713
asg15
S'6:00PM'
p1714
sg17
S'6:59PM'
p1715
sg19
V12443
p1716
sg21
VBarrows 80
p1717
sg23
(lp1718
sg25
I0
sg26
VMichael Cohen
p1719
sg28
g47
sbsS'Architecture 198BC'
p1720
(ipackage.Class
AClass
p1721
(dp1722
g4
I0
sg5
(lp1723
sg7
V198BC
p1724
sg9
S'SEM\nRegular'
p1725
sg11
(lp1726
S'Th'
p1727
aS'Th'
p1728
asg15
S'7:00PM'
p1729
sg17
S'7:59PM'
p1730
sg19
V12069
p1731
sg21
VWurster 172
p1732
sg23
(lp1733
sg25
I0
sg26
VC Crysler,\u000aValentina Rozas Krause
p1734
sg28
g29
sbsS'African American Studies 159'
p1735
(ipackage.Class
AClass
p1736
(dp1737
g4
I0
sg5
(lp1738
sg7
V159
p1739
sg9
S'LEC\nRegular'
p1740
sg11
(lp1741
S'Tu'
p1742
aS'Th'
p1743
aS'Mo'
p1744
aS'We'
p1745
asg15
S'10:00AM'
p1746
sg17
S'11:59AM'
p1747
sg19
V12452
p1748
sg21
VBarrows 151
p1749
sg23
(lp1750
sg25
I0
sg26
VChiyuma Elliott
p1751
sg28
g47
sbsS'Anthropology 84'
p1752
(ipackage.Class
AClass
p1753
(dp1754
g4
I0
sg5
(lp1755
sg7
V84
p1756
sg9
S'SEM\nRegular'
p1757
sg11
(lp1758
S'We'
p1759
aS'We'
p1760
asg15
S'11:00AM'
p1761
sg17
S'11:59AM'
p1762
sg19
V33709
p1763
sg21
VKroeber 221
p1764
sg23
(lp1765
sg25
I0
sg26
VRosemary Joyce
p1766
sg28
g96
sbsS'Architecture 100A'
p1767
(ipackage.Class
AClass
p1768
(dp1769
g4
I0
sg5
(lp1770
(ipackage.Section
Section
p1771
(dp1772
g25
I0
sg64
S'1:59PM'
p1773
sg9
g334
sg11
(lp1774
S'Fr'
p1775
asg19
S'12004'
p1776
sg21
VWurster 112
p1777
sg71
S'11:00AM'
p1778
sg4
I0
sbasg7
V100A
p1779
sg9
S'STD\nRegular'
p1780
sg11
(lp1781
S'Mo'
p1782
aS'We'
p1783
aS'Mo'
p1784
aS'We'
p1785
asg15
S'3:00PM'
p1786
sg17
S'5:59PM'
p1787
sg19
V11993
p1788
sg21
VWurster 601
p1789
sg23
(lp1790
sg25
I0
sg26
VLisa Iwamoto
p1791
sg28
g29
sbsS'Arabic 20A'
p1792
(ipackage.Class
AClass
p1793
(dp1794
g4
I0
sg5
(lp1795
sg7
V20A
p1796
sg9
S'REC\nRegular'
p1797
sg11
(lp1798
S'Mo'
p1799
aS'Tu'
p1800
aS'We'
p1801
aS'Th'
p1802
aS'Fr'
p1803
aS'Mo'
p1804
aS'Tu'
p1805
aS'We'
p1806
aS'Th'
p1807
aS'Fr'
p1808
aS'Mo'
p1809
aS'Tu'
p1810
aS'We'
p1811
aS'Th'
p1812
aS'Fr'
p1813
asg15
S'3:00PM'
p1814
sg17
S'3:59PM'
p1815
sg19
V12848
p1816
sg21
VBarrows 271
p1817
sg23
(lp1818
sg25
I0
sg26
VElsa Elmahdy
p1819
sg28
g204
sbsS'Anthropology 127A'
p1820
(ipackage.Class
AClass
p1821
(dp1822
g4
I0
sg5
(lp1823
(ipackage.Section
Section
p1824
(dp1825
g25
I0
sg64
S'1:59PM'
p1826
sg9
g334
sg11
(lp1827
S'Fr'
p1828
asg19
S'12488'
p1829
sg21
VBarrows 65
p1830
sg71
S'10:00AM'
p1831
sg4
I0
sbasg7
V127A
p1832
sg9
S'LEC\nRegular'
p1833
sg11
(lp1834
S'We'
p1835
asg15
S'1:00PM'
p1836
sg17
S'2:59PM'
p1837
sg19
V12480
p1838
sg21
VBarrows 65
p1839
sg23
(lp1840
sg25
I0
sg26
VSabrina Agarwal
p1841
sg28
g96
sbsS'American Studies 101'
p1842
(ipackage.Class
AClass
p1843
(dp1844
g4
I0
sg5
(lp1845
sg7
V101
p1846
sg9
S'LEC\nRegular'
p1847
sg11
(lp1848
S'Tu'
p1849
aS'Th'
p1850
aS'Tu'
p1851
aS'Th'
p1852
aS'Mo'
p1853
aS'Tu'
p1854
aS'Th'
p1855
asg15
S'5:00PM'
p1856
sg17
S'6:29PM'
p1857
sg19
V34925
p1858
sg21
VTBA
p1859
sg23
(lp1860
sg25
I0
sg26
VStaff
p1861
sg28
g525
sbsS'American Studies 102'
p1862
(ipackage.Class
AClass
p1863
(dp1864
g4
I0
sg5
(lp1865
sg7
V102
p1866
sg9
S'LEC\nRegular'
p1867
sg11
(lp1868
S'Tu'
p1869
aS'Th'
p1870
asg15
S'12:30PM'
p1871
sg17
S'1:59PM'
p1872
sg19
V12502
p1873
sg21
VKroeber 155
p1874
sg23
(lp1875
sg25
I0
sg26
VRichard Hutson
p1876
sg28
g525
sbsS'Anthropology 157'
p1877
(ipackage.Class
AClass
p1878
(dp1879
g4
I0
sg5
(lp1880
sg7
V157
p1881
sg9
S'LEC\nRegular'
p1882
sg11
(lp1883
S'Tu'
p1884
aS'Th'
p1885
asg15
S'11:00AM'
p1886
sg17
S'12:29PM'
p1887
sg19
V12662
p1888
sg21
VKroeber 160
p1889
sg23
(lp1890
sg25
I0
sg26
VLaura Nader
p1891
sg28
g96
sbsS'Anthropology 155'
p1892
(ipackage.Class
AClass
p1893
(dp1894
g4
I0
sg5
(lp1895
sg7
V155
p1896
sg9
S'LEC\nRegular'
p1897
sg11
(lp1898
S'Tu'
p1899
aS'Th'
p1900
asg15
S'9:30AM'
p1901
sg17
S'10:59AM'
p1902
sg19
V12737
p1903
sg21
V2251 College 101
p1904
sg23
(lp1905
sg25
I0
sg26
VPaul Rabinow
p1906
sg28
g96
sbsS'Anthropology 150'
p1907
(ipackage.Class
AClass
p1908
(dp1909
g4
I0
sg5
(lp1910
sg7
V150
p1911
sg9
S'LEC\nRegular'
p1912
sg11
(lp1913
S'Tu'
p1914
aS'Th'
p1915
asg15
S'12:30PM'
p1916
sg17
S'1:59PM'
p1917
sg19
V12510
p1918
sg21
VBarrows 170
p1919
sg23
(lp1920
sg25
I0
sg26
VAlexei Yurchak
p1921
sg28
g96
sbsS'Anthropology 3AC'
p1922
(ipackage.Class
AClass
p1923
(dp1924
g4
I0
sg5
(lp1925
sg7
V3AC
p1926
sg9
S'LEC\nRegular'
p1927
sg11
(lp1928
S'Tu'
p1929
aS'Th'
p1930
asg15
S'11:00AM'
p1931
sg17
S'12:29PM'
p1932
sg19
V12569
p1933
sg21
VDwinelle 155
p1934
sg23
(lp1935
(ipackage.Section
Section
p1936
(dp1937
g25
I0
sg64
S'9:59AM'
p1938
sg9
g66
sg11
(lp1939
S'Mo'
p1940
asg19
S'12570'
p1941
sg21
VBarrows 76
p1942
sg71
S'9:00AM'
p1943
sg4
I0
sba(ipackage.Section
Section
p1944
(dp1945
g25
I0
sg64
S'10:59AM'
p1946
sg9
g66
sg11
(lp1947
S'Mo'
p1948
asg19
S'12571'
p1949
sg21
VBarrows 76
p1950
sg71
S'10:00AM'
p1951
sg4
I0
sba(ipackage.Section
Section
p1952
(dp1953
g25
I0
sg64
S'11:59AM'
p1954
sg9
g66
sg11
(lp1955
S'Mo'
p1956
asg19
S'12572'
p1957
sg21
VBarrows 76
p1958
sg71
S'11:00AM'
p1959
sg4
I0
sba(ipackage.Section
Section
p1960
(dp1961
g25
I0
sg64
S'12:59PM'
p1962
sg9
g66
sg11
(lp1963
S'Mo'
p1964
asg19
S'12573'
p1965
sg21
VBarrows 76
p1966
sg71
S'12:00PM'
p1967
sg4
I0
sba(ipackage.Section
Section
p1968
(dp1969
g25
I0
sg64
S'1:59PM'
p1970
sg9
g66
sg11
(lp1971
S'Mo'
p1972
asg19
S'12574'
p1973
sg21
VBarrows 76
p1974
sg71
S'1:00PM'
p1975
sg4
I0
sba(ipackage.Section
Section
p1976
(dp1977
g25
I0
sg64
S'4:59PM'
p1978
sg9
g66
sg11
(lp1979
S'Mo'
p1980
asg19
S'12575'
p1981
sg21
VBarrows 76
p1982
sg71
S'4:00PM'
p1983
sg4
I0
sba(ipackage.Section
Section
p1984
(dp1985
g25
I0
sg64
S'9:59AM'
p1986
sg9
g66
sg11
(lp1987
S'Tu'
p1988
asg19
S'12576'
p1989
sg21
VBarrows 76
p1990
sg71
S'9:00AM'
p1991
sg4
I0
sba(ipackage.Section
Section
p1992
(dp1993
g25
I0
sg64
S'10:59AM'
p1994
sg9
g66
sg11
(lp1995
S'Tu'
p1996
asg19
S'12577'
p1997
sg21
VBarrows 76
p1998
sg71
S'10:00AM'
p1999
sg4
I0
sba(ipackage.Section
Section
p2000
(dp2001
g25
I0
sg64
S'1:59PM'
p2002
sg9
g66
sg11
(lp2003
S'Tu'
p2004
asg19
S'12578'
p2005
sg21
VBarrows 76
p2006
sg71
S'1:00PM'
p2007
sg4
I0
sba(ipackage.Section
Section
p2008
(dp2009
g25
I0
sg64
S'2:59PM'
p2010
sg9
g66
sg11
(lp2011
S'Tu'
p2012
asg19
S'12524'
p2013
sg21
VBarrows 76
p2014
sg71
S'2:00PM'
p2015
sg4
I0
sba(ipackage.Section
Section
p2016
(dp2017
g25
I0
sg64
S'3:59PM'
p2018
sg9
g66
sg11
(lp2019
S'Tu'
p2020
asg19
S'12525'
p2021
sg21
VBarrows 76
p2022
sg71
S'3:00PM'
p2023
sg4
I0
sba(ipackage.Section
Section
p2024
(dp2025
g25
I0
sg64
S'4:59PM'
p2026
sg9
g66
sg11
(lp2027
S'Tu'
p2028
asg19
S'12526'
p2029
sg21
VBarrows 76
p2030
sg71
S'4:00PM'
p2031
sg4
I0
sba(ipackage.Section
Section
p2032
(dp2033
g25
I0
sg64
S'9:59AM'
p2034
sg9
g66
sg11
(lp2035
S'We'
p2036
asg19
S'12527'
p2037
sg21
VBarrows 76
p2038
sg71
S'9:00AM'
p2039
sg4
I0
sba(ipackage.Section
Section
p2040
(dp2041
g25
I0
sg64
S'10:59AM'
p2042
sg9
g66
sg11
(lp2043
S'We'
p2044
asg19
S'12528'
p2045
sg21
VBarrows 76
p2046
sg71
S'10:00AM'
p2047
sg4
I0
sba(ipackage.Section
Section
p2048
(dp2049
g25
I0
sg64
S'11:59AM'
p2050
sg9
g66
sg11
(lp2051
S'We'
p2052
asg19
S'12529'
p2053
sg21
VBarrows 76
p2054
sg71
S'11:00AM'
p2055
sg4
I0
sba(ipackage.Section
Section
p2056
(dp2057
g25
I0
sg64
S'12:59PM'
p2058
sg9
g66
sg11
(lp2059
S'We'
p2060
asg19
S'12532'
p2061
sg21
VBarrows 76
p2062
sg71
S'12:00PM'
p2063
sg4
I0
sba(ipackage.Section
Section
p2064
(dp2065
g25
I0
sg64
S'1:59PM'
p2066
sg9
g66
sg11
(lp2067
S'We'
p2068
asg19
S'12533'
p2069
sg21
VBarrows 76
p2070
sg71
S'1:00PM'
p2071
sg4
I0
sba(ipackage.Section
Section
p2072
(dp2073
g25
I0
sg64
S'2:59PM'
p2074
sg9
g66
sg11
(lp2075
S'We'
p2076
asg19
S'12519'
p2077
sg21
VBarrows 76
p2078
sg71
S'2:00PM'
p2079
sg4
I0
sba(ipackage.Section
Section
p2080
(dp2081
g25
I0
sg64
S'3:59PM'
p2082
sg9
g66
sg11
(lp2083
S'We'
p2084
asg19
S'12520'
p2085
sg21
VBarrows 76
p2086
sg71
S'3:00PM'
p2087
sg4
I0
sba(ipackage.Section
Section
p2088
(dp2089
g25
I0
sg64
S'4:59PM'
p2090
sg9
g66
sg11
(lp2091
S'We'
p2092
asg19
S'12521'
p2093
sg21
VBarrows 76
p2094
sg71
S'4:00PM'
p2095
sg4
I0
sba(ipackage.Section
Section
p2096
(dp2097
g25
I0
sg64
S'9:59AM'
p2098
sg9
g66
sg11
(lp2099
S'Th'
p2100
asg19
S'12522'
p2101
sg21
VBarrows 76
p2102
sg71
S'9:00AM'
p2103
sg4
I0
sba(ipackage.Section
Section
p2104
(dp2105
g25
I0
sg64
S'10:59AM'
p2106
sg9
g66
sg11
(lp2107
S'Th'
p2108
asg19
S'12523'
p2109
sg21
VBarrows 76
p2110
sg71
S'10:00AM'
p2111
sg4
I0
sba(ipackage.Section
Section
p2112
(dp2113
g25
I0
sg64
S'1:59PM'
p2114
sg9
g66
sg11
(lp2115
S'Th'
p2116
asg19
S'12534'
p2117
sg21
VBarrows 76
p2118
sg71
S'1:00PM'
p2119
sg4
I0
sba(ipackage.Section
Section
p2120
(dp2121
g25
I0
sg64
S'2:59PM'
p2122
sg9
g66
sg11
(lp2123
S'Th'
p2124
asg19
S'12535'
p2125
sg21
VBarrows 76
p2126
sg71
S'2:00PM'
p2127
sg4
I0
sba(ipackage.Section
Section
p2128
(dp2129
g25
I0
sg64
S'3:59PM'
p2130
sg9
g66
sg11
(lp2131
S'Th'
p2132
asg19
S'12536'
p2133
sg21
VBarrows 76
p2134
sg71
S'3:00PM'
p2135
sg4
I0
sba(ipackage.Section
Section
p2136
(dp2137
g25
I0
sg64
S'4:59PM'
p2138
sg9
g66
sg11
(lp2139
S'Th'
p2140
asg19
S'12537'
p2141
sg21
VBarrows 76
p2142
sg71
S'4:00PM'
p2143
sg4
I0
sba(ipackage.Section
Section
p2144
(dp2145
g25
I0
sg64
S'9:59AM'
p2146
sg9
g66
sg11
(lp2147
S'Fr'
p2148
asg19
S'12538'
p2149
sg21
VBarrows 76
p2150
sg71
S'9:00AM'
p2151
sg4
I0
sba(ipackage.Section
Section
p2152
(dp2153
g25
I0
sg64
S'10:59AM'
p2154
sg9
g66
sg11
(lp2155
S'Fr'
p2156
asg19
S'32330'
p2157
sg21
VBarrows 76
p2158
sg71
S'10:00AM'
p2159
sg4
I0
sbasg25
I0
sg26
VJames Holston
p2160
sg28
g96
sbsS'American Studies H110'
p2161
(ipackage.Class
AClass
p2162
(dp2163
g4
I0
sg5
(lp2164
sg7
VH110
p2165
sg9
S'SEM\nRegular'
p2166
sg11
(lp2167
S'We'
p2168
asg15
S'3:00PM'
p2169
sg17
S'5:59PM'
p2170
sg19
V12736
p2171
sg21
VHaviland 214
p2172
sg23
(lp2173
sg25
I0
sg26
VMichael Cohen
p2174
sg28
g525
sbsS'Anthropology 158'
p2175
(ipackage.Class
AClass
p2176
(dp2177
g4
I0
sg5
(lp2178
sg7
V158
p2179
sg9
S'LEC\nRegular'
p2180
sg11
(lp2181
S'Tu'
p2182
aS'Th'
p2183
asg15
S'5:00PM'
p2184
sg17
S'6:29PM'
p2185
sg19
V34200
p2186
sg21
VKroeber 221
p2187
sg23
(lp2188
sg25
I0
sg26
VPeter Skafish
p2189
sg28
g96
sbsS'American Studies 10'
p2190
(ipackage.Class
AClass
p2191
(dp2192
g4
I0
sg5
(lp2193
sg7
V10
p2194
sg9
S'LEC\nRegular'
p2195
sg11
(lp2196
S'Mo'
p2197
aS'We'
p2198
asg15
S'2:00PM'
p2199
sg17
S'3:59PM'
p2200
sg19
V32135
p2201
sg21
VHearst Mining 390
p2202
sg23
(lp2203
(ipackage.Section
Section
p2204
(dp2205
g25
I0
sg64
S'5:59PM'
p2206
sg9
g66
sg11
(lp2207
S'Mo'
p2208
asg19
S'12509'
p2209
sg21
VBarrows 104
p2210
sg71
S'5:00PM'
p2211
sg4
I0
sba(ipackage.Section
Section
p2212
(dp2213
g25
I0
sg64
S'12:59PM'
p2214
sg9
g66
sg11
(lp2215
S'Mo'
p2216
asg19
S'33761'
p2217
sg21
VBarker 110
p2218
sg71
S'12:00PM'
p2219
sg4
I0
sbasg25
I0
sg26
VChristine Palmer
p2220
sg28
g525
sbsS'American Studies C134'
p2221
(ipackage.Class
AClass
p2222
(dp2223
g4
I0
sg5
(lp2224
sg7
VC134
p2225
sg9
S'LEC\nRegular'
p2226
sg11
(lp2227
S'Mo'
p2228
asg15
S'2:00PM'
p2229
sg17
S'4:59PM'
p2230
sg19
V12568
p2231
sg21
VKroeber 155
p2232
sg23
(lp2233
sg25
I0
sg26
VMichel Laguerre
p2234
sg28
g525
sbsS'African American Studies 31A'
p2235
(ipackage.Class
AClass
p2236
(dp2237
g4
I0
sg5
(lp2238
sg7
V31A
p2239
sg9
S'LEC\nRegular'
p2240
sg11
(lp2241
g533
asg15
g533
sg17
g533
sg19
V34814
p2242
sg21
VTBA
p2243
sg23
(lp2244
sg25
I0
sg26
VStaff
p2245
sg28
g47
sbsS'Architecture 11A'
p2246
(ipackage.Class
AClass
p2247
(dp2248
g4
I0
sg5
(lp2249
sg7
V11A
p2250
sg9
S'STD\nRegular'
p2251
sg11
(lp2252
S'Mo'
p2253
aS'We'
p2254
aS'Mo'
p2255
aS'We'
p2256
aS'Mo'
p2257
aS'We'
p2258
aS'Mo'
p2259
aS'We'
p2260
aS'Mo'
p2261
aS'We'
p2262
asg15
S'10:00AM'
p2263
sg17
S'12:59PM'
p2264
sg19
V33290
p2265
sg21
VWurster 501
p2266
sg23
(lp2267
sg25
I0
sg26
VStaff
p2268
sg28
g29
sbsS'Anthropology 98'
p2269
(ipackage.Class
AClass
p2270
(dp2271
g4
I0
sg5
(lp2272
sg7
V98
p2273
sg9
S'GRP\nRegular'
p2274
sg11
(lp2275
g533
aS'Tu'
p2276
asg15
S'4:00PM'
p2277
sg17
S'5:59PM'
p2278
sg19
V34670
p2279
sg21
VMcCone 145
p2280
sg23
(lp2281
sg25
I0
sg26
VStaff
p2282
sg28
g96
sbsS'Architecture 110AC'
p2283
(ipackage.Class
AClass
p2284
(dp2285
g4
I0
sg5
(lp2286
sg7
V110AC
p2287
sg9
S'LEC\nRegular'
p2288
sg11
(lp2289
S'Tu'
p2290
aS'Th'
p2291
asg15
S'2:00PM'
p2292
sg17
S'3:59PM'
p2293
sg19
V12074
p2294
sg21
VWurster 112
p2295
sg23
(lp2296
sg25
I0
sg26
VGalen Cranz,\u000aRex Crabb
p2297
sg28
g29
sbs.