(dp0
VMulford
p1
S'ChIJkTA5XV54PIgRKqybXsRq4AA'
p2
sVEvans
p3
S'ChIJWVWbF1OgbocRF5UGhfrdSr4'
p4
sVDwinelle
p5
S'ChIJcdUKYSZ8hYAR4RgJyVzML74'
p6
sVEtcheverry
p7
S'ChIJwdcixRh3j4ARyFczs11pR64'
p8
sVValley+Life+Sciences
p9
S'ChIJb14Z5SZ8hYARdRaL02pAAQo'
p10
sVHertz
p11
S'ChIJjwUPiQVnwokRKJX_kYZwfQE'
p12
sVSoda
p13
S'ChIJYXrBziN8hYAREYcw0IXw4dY'
p14
sVWurster
p15
S'ChIJCZO2RCV8hYARxqiiTvOKDGE'
p16
sVMoffitt+Library
p17
S'ChIJxWEsuCZ8hYAR48_Sst45khU'
p18
sVCory
p19
S'ChIJs4wtk7wMbYgRrN88TewAoIo'
p20
sVBarrows
p21
S'ChIJI0uCZVkSK4cRJ2t-Sxiqt20'
p22
s.